target datalayout = "e-m:e-p270:32:32-p271:32:32-p272:64:64-i64:64-i128:128-f80:128-n8:16:32:64-S128"
target triple = "x86_64-pc-linux-gnu"

%"class.casadi::SXElem" = type { ptr }
%"class.casadi::Matrix" = type { [8 x i8], %"class.casadi::Sparsity", %"class.std::vector" }
%"class.casadi::Sparsity" = type { %"class.casadi::SharedObject" }
%"class.casadi::SharedObject" = type { ptr }
%"class.std::vector" = type { %"struct.std::_Vector_base" }
%"struct.std::_Vector_base" = type { %"struct.std::_Vector_base<casadi::SXElem, std::allocator<casadi::SXElem>>::_Vector_impl" }
%"struct.std::_Vector_base<casadi::SXElem, std::allocator<casadi::SXElem>>::_Vector_impl" = type { %"struct.std::_Vector_base<casadi::SXElem, std::allocator<casadi::SXElem>>::_Vector_impl_data" }
%"struct.std::_Vector_base<casadi::SXElem, std::allocator<casadi::SXElem>>::_Vector_impl_data" = type { ptr, ptr, ptr }

@.str.470 = private unnamed_addr constant [74 x i8] c"vector::_M_range_check: __n (which is %zu) >= this->size() (which is %zu)\00", align 1

; Function Attrs: mustprogress nounwind uwtable
define linkonce_odr hidden noundef i64 @_ZNKSt6vectorIN6casadi6SXElemESaIS1_EE4sizeEv(ptr noundef nonnull align 8 dereferenceable(24) %0) #5 comdat align 2 {
  %2 = alloca ptr, align 8
  store ptr %0, ptr %2, align 8
  %3 = load ptr, ptr %2, align 8
  %4 = getelementptr inbounds %"struct.std::_Vector_base", ptr %3, i32 0, i32 0
  %5 = getelementptr inbounds %"struct.std::_Vector_base<casadi::SXElem, std::allocator<casadi::SXElem>>::_Vector_impl_data", ptr %4, i32 0, i32 1
  %6 = load ptr, ptr %5, align 8
  %7 = getelementptr inbounds %"struct.std::_Vector_base", ptr %3, i32 0, i32 0
  %8 = getelementptr inbounds %"struct.std::_Vector_base<casadi::SXElem, std::allocator<casadi::SXElem>>::_Vector_impl_data", ptr %7, i32 0, i32 0
  %9 = load ptr, ptr %8, align 8
  %10 = ptrtoint ptr %6 to i64
  %11 = ptrtoint ptr %9 to i64
  %12 = sub i64 %10, %11
  %13 = sdiv exact i64 %12, 8
  ret i64 %13
}

; Function Attrs: mustprogress nounwind uwtable
define weak_odr noundef nonnull align 8 dereferenceable(8) ptr @_ZNK6casadi6MatrixINS_6SXElemEE8sparsityEv(ptr noundef nonnull align 8 dereferenceable(40) %0) #5 comdat align 2 {
  %2 = alloca ptr, align 8
  store ptr %0, ptr %2, align 8
  %3 = load ptr, ptr %2, align 8
  %4 = getelementptr inbounds %"class.casadi::Matrix", ptr %3, i32 0, i32 1
  ret ptr %4
}

; Function Attrs: mustprogress nounwind uwtable
define linkonce_odr hidden noundef nonnull align 8 dereferenceable(40) ptr @_ZNK6casadi17SparsityInterfaceINS_6MatrixINS_6SXElemEEEE4selfEv(ptr noundef nonnull align 1 dereferenceable(1) %0) #5 comdat align 2 {
  %2 = alloca ptr, align 8
  store ptr %0, ptr %2, align 8
  %3 = load ptr, ptr %2, align 8
  ret ptr %3
}

; Function Attrs: mustprogress nounwind uwtable
define linkonce_odr hidden noundef nonnull align 8 dereferenceable(8) ptr @_ZNKSt6vectorIN6casadi6SXElemESaIS1_EEixEm(ptr noundef nonnull align 8 dereferenceable(24) %0, i64 noundef %1) #5 comdat align 2 {
  %3 = alloca ptr, align 8
  %4 = alloca i64, align 8
  store ptr %0, ptr %3, align 8
  store i64 %1, ptr %4, align 8
  %5 = load ptr, ptr %3, align 8
  %6 = getelementptr inbounds %"struct.std::_Vector_base", ptr %5, i32 0, i32 0
  %7 = getelementptr inbounds %"struct.std::_Vector_base<casadi::SXElem, std::allocator<casadi::SXElem>>::_Vector_impl_data", ptr %6, i32 0, i32 0
  %8 = load ptr, ptr %7, align 8
  %9 = load i64, ptr %4, align 8
  %10 = getelementptr inbounds %"class.casadi::SXElem", ptr %8, i64 %9
  ret ptr %10
}

; Function Attrs: mustprogress uwtable
define linkonce_odr hidden void @_ZNKSt6vectorIN6casadi6SXElemESaIS1_EE14_M_range_checkEm(ptr noundef nonnull align 8 dereferenceable(24) %0, i64 noundef %1) #4 comdat align 2 {
  %3 = alloca ptr, align 8
  %4 = alloca i64, align 8
  store ptr %0, ptr %3, align 8
  store i64 %1, ptr %4, align 8
  %5 = load ptr, ptr %3, align 8
  %6 = load i64, ptr %4, align 8
  %7 = call noundef i64 @_ZNKSt6vectorIN6casadi6SXElemESaIS1_EE4sizeEv(ptr noundef nonnull align 8 dereferenceable(24) %5) #3
  %8 = icmp uge i64 %6, %7
  br i1 %8, label %9, label %12

9:                                                ; preds = %2
  %10 = load i64, ptr %4, align 8
  %11 = call noundef i64 @_ZNKSt6vectorIN6casadi6SXElemESaIS1_EE4sizeEv(ptr noundef nonnull align 8 dereferenceable(24) %5) #3
  call void (ptr, ...) @_ZSt24__throw_out_of_range_fmtPKcz(ptr noundef @.str.470, i64 noundef %10, i64 noundef %11) #18
  unreachable

12:                                               ; preds = %2
  ret void
}

; Function Attrs: mustprogress uwtable
define linkonce_odr hidden noundef nonnull align 8 dereferenceable(8) ptr @_ZNK6casadi13GenericMatrixINS_6MatrixINS_6SXElemEEEE8sparsityEv(ptr noundef nonnull align 1 dereferenceable(1) %0) #4 comdat align 2 {
  %2 = alloca ptr, align 8
  store ptr %0, ptr %2, align 8
  %3 = load ptr, ptr %2, align 8
  %4 = call noundef nonnull align 8 dereferenceable(40) ptr @_ZNK6casadi17SparsityInterfaceINS_6MatrixINS_6SXElemEEEE4selfEv(ptr noundef nonnull align 1 dereferenceable(1) %3)
  %5 = call noundef nonnull align 8 dereferenceable(8) ptr @_ZNK6casadi6MatrixINS_6SXElemEE8sparsityEv(ptr noundef nonnull align 8 dereferenceable(40) %4)
  ret ptr %5
}

; Function Attrs: mustprogress uwtable
define linkonce_odr hidden noundef nonnull align 8 dereferenceable(8) ptr @_ZNKSt6vectorIN6casadi6SXElemESaIS1_EE2atEm(ptr noundef nonnull align 8 dereferenceable(24) %0, i64 noundef %1) #4 comdat align 2 {
  %3 = alloca ptr, align 8
  %4 = alloca i64, align 8
  store ptr %0, ptr %3, align 8
  store i64 %1, ptr %4, align 8
  %5 = load ptr, ptr %3, align 8
  %6 = load i64, ptr %4, align 8
  call void @_ZNKSt6vectorIN6casadi6SXElemESaIS1_EE14_M_range_checkEm(ptr noundef nonnull align 8 dereferenceable(24) %5, i64 noundef %6)
  %7 = load i64, ptr %4, align 8
  %8 = call noundef nonnull align 8 dereferenceable(8) ptr @_ZNKSt6vectorIN6casadi6SXElemESaIS1_EEixEm(ptr noundef nonnull align 8 dereferenceable(24) %5, i64 noundef %7) #3
  ret ptr %8
}

; Function Attrs: mustprogress nounwind uwtable
define weak_odr noundef nonnull align 8 dereferenceable(24) ptr @_ZNK6casadi6MatrixINS_6SXElemEE8nonzerosEv(ptr noundef nonnull align 8 dereferenceable(40) %0) #5 comdat align 2 {
  %2 = alloca ptr, align 8
  store ptr %0, ptr %2, align 8
  %3 = load ptr, ptr %2, align 8
  %4 = getelementptr inbounds %"class.casadi::Matrix", ptr %3, i32 0, i32 2
  ret ptr %4
}

; Function Attrs: mustprogress uwtable
define linkonce_odr hidden noundef i64 @_ZNK6casadi13GenericMatrixINS_6MatrixINS_6SXElemEEEE3nnzEv(ptr noundef nonnull align 1 dereferenceable(1) %0) #4 comdat align 2 {
  %2 = alloca ptr, align 8
  store ptr %0, ptr %2, align 8
  %3 = load ptr, ptr %2, align 8
  %4 = call noundef nonnull align 8 dereferenceable(8) ptr @_ZNK6casadi13GenericMatrixINS_6MatrixINS_6SXElemEEEE8sparsityEv(ptr noundef nonnull align 1 dereferenceable(1) %3)
  %5 = call noundef i64 @_ZNK6casadi8Sparsity3nnzEv(ptr noundef nonnull align 8 dereferenceable(8) %4)
  ret i64 %5
}

; Function Attrs: mustprogress uwtable
define noundef zeroext i1 @_ZNK6casadi6MatrixINS_6SXElemEE10is_regularEv(ptr noundef nonnull align 8 dereferenceable(40) %0) #4 align 2 {
  %2 = alloca i1, align 1
  %3 = alloca ptr, align 8
  %4 = alloca i64, align 8
  %5 = alloca ptr, align 8
  %6 = alloca i64, align 8
  store ptr %0, ptr %3, align 8
  %7 = load ptr, ptr %3, align 8
  store i64 0, ptr %4, align 8
  br label %8

8:                                                ; preds = %30, %1
  %9 = load i64, ptr %4, align 8
  %10 = call noundef i64 @_ZNK6casadi13GenericMatrixINS_6MatrixINS_6SXElemEEEE3nnzEv(ptr noundef nonnull align 1 dereferenceable(1) %7)
  %11 = icmp slt i64 %9, %10
  br i1 %11, label %12, label %33

12:                                               ; preds = %8
  %13 = call noundef nonnull align 8 dereferenceable(24) ptr @_ZNK6casadi6MatrixINS_6SXElemEE8nonzerosEv(ptr noundef nonnull align 8 dereferenceable(40) %7)
  %14 = load i64, ptr %4, align 8
  %15 = call noundef nonnull align 8 dereferenceable(8) ptr @_ZNKSt6vectorIN6casadi6SXElemESaIS1_EE2atEm(ptr noundef nonnull align 8 dereferenceable(24) %13, i64 noundef %14)
  store ptr %15, ptr %5, align 8
  %16 = load ptr, ptr %5, align 8
  %17 = call noundef zeroext i1 @_ZNK6casadi6SXElem11is_constantEv(ptr noundef nonnull align 8 dereferenceable(8) %16)
  br i1 %17, label %18, label %29

18:                                               ; preds = %12
  %19 = load ptr, ptr %5, align 8
  %20 = call noundef zeroext i1 @_ZNK6casadi6SXElem6is_nanEv(ptr noundef nonnull align 8 dereferenceable(8) %19)
  br i1 %20, label %27, label %21

21:                                               ; preds = %18
  %22 = load ptr, ptr %5, align 8
  %23 = call noundef zeroext i1 @_ZNK6casadi6SXElem6is_infEv(ptr noundef nonnull align 8 dereferenceable(8) %22)
  br i1 %23, label %27, label %24

24:                                               ; preds = %21
  %25 = load ptr, ptr %5, align 8
  %26 = call noundef zeroext i1 @_ZNK6casadi6SXElem12is_minus_infEv(ptr noundef nonnull align 8 dereferenceable(8) %25)
  br i1 %26, label %27, label %28

27:                                               ; preds = %24, %21, %18
  store i1 false, ptr %2, align 1
  br label %49

28:                                               ; preds = %24
  br label %29

29:                                               ; preds = %28, %12
  br label %30

30:                                               ; preds = %29
  %31 = load i64, ptr %4, align 8
  %32 = add nsw i64 %31, 1
  store i64 %32, ptr %4, align 8
  br label %8, !llvm.loop !147

33:                                               ; preds = %8
  store i64 0, ptr %6, align 8
  br label %34

34:                                               ; preds = %45, %33
  %35 = load i64, ptr %6, align 8
  %36 = call noundef i64 @_ZNK6casadi13GenericMatrixINS_6MatrixINS_6SXElemEEEE3nnzEv(ptr noundef nonnull align 1 dereferenceable(1) %7)
  %37 = icmp slt i64 %35, %36
  br i1 %37, label %38, label %48

38:                                               ; preds = %34
  %39 = call noundef nonnull align 8 dereferenceable(24) ptr @_ZNK6casadi6MatrixINS_6SXElemEE8nonzerosEv(ptr noundef nonnull align 8 dereferenceable(40) %7)
  %40 = load i64, ptr %6, align 8
  %41 = call noundef nonnull align 8 dereferenceable(8) ptr @_ZNKSt6vectorIN6casadi6SXElemESaIS1_EE2atEm(ptr noundef nonnull align 8 dereferenceable(24) %39, i64 noundef %40)
  %42 = call noundef zeroext i1 @_ZNK6casadi6SXElem10is_regularEv(ptr noundef nonnull align 8 dereferenceable(8) %41)
  br i1 %42, label %44, label %43

43:                                               ; preds = %38
  store i1 false, ptr %2, align 1
  br label %49

44:                                               ; preds = %38
  br label %45

45:                                               ; preds = %44
  %46 = load i64, ptr %6, align 8
  %47 = add nsw i64 %46, 1
  store i64 %47, ptr %6, align 8
  br label %34, !llvm.loop !148

48:                                               ; preds = %34
  store i1 true, ptr %2, align 1
  br label %49

49:                                               ; preds = %48, %43, %27
  %50 = load i1, ptr %2, align 1
  ret i1 %50
}