; Function Attrs: mustprogress uwtable
define noundef zeroext i1 @_ZNK6casadi6MatrixINS_6SXElemEE10is_regularEv(ptr noundef nonnull align 8 dereferenceable(40) %0) local_unnamed_addr #3 align 2 {
  %2 = getelementptr inbounds i8, ptr %0, i64 8
  %3 = tail call noundef i64 @_ZNK6casadi8Sparsity3nnzEv(ptr noundef nonnull align 8 dereferenceable(8) %2)
  %4 = icmp sgt i64 %3, 0
  br i1 %4, label %.lr.ph, label %.preheader

.lr.ph:                                           ; preds = %1
  %5 = getelementptr inbounds i8, ptr %0, i64 16
  %6 = getelementptr inbounds i8, ptr %0, i64 24
  br label %11

.preheader:                                       ; preds = %27, %1
  %7 = tail call noundef i64 @_ZNK6casadi8Sparsity3nnzEv(ptr noundef nonnull align 8 dereferenceable(8) %2)
  %8 = icmp sgt i64 %7, 0
  br i1 %8, label %.lr.ph26, label %.loopexit

.lr.ph26:                                         ; preds = %.preheader
  %9 = getelementptr inbounds i8, ptr %0, i64 16
  %10 = getelementptr inbounds i8, ptr %0, i64 24
  br label %31

11:                                               ; preds = %.lr.ph, %27
  %.01224 = phi i64 [ 0, %.lr.ph ], [ %28, %27 ]
  %12 = load ptr, ptr %6, align 8
  %13 = load ptr, ptr %5, align 8
  %14 = ptrtoint ptr %12 to i64
  %15 = ptrtoint ptr %13 to i64
  %16 = sub i64 %14, %15
  %17 = ashr exact i64 %16, 3
  %.not.i.i = icmp ugt i64 %17, %.01224
  br i1 %.not.i.i, label %_ZNKSt6vectorIN6casadi6SXElemESaIS1_EE2atEm.exit, label %18

18:                                               ; preds = %11
  tail call void (ptr, ...) @_ZSt24__throw_out_of_range_fmtPKcz(ptr noundef nonnull @.str.470, i64 noundef %.01224, i64 noundef %17) #27
  unreachable

_ZNKSt6vectorIN6casadi6SXElemESaIS1_EE2atEm.exit: ; preds = %11
  %19 = getelementptr inbounds %"class.casadi::SXElem", ptr %13, i64 %.01224
  %20 = tail call noundef zeroext i1 @_ZNK6casadi6SXElem11is_constantEv(ptr noundef nonnull align 8 dereferenceable(8) %19)
  br i1 %20, label %21, label %27

21:                                               ; preds = %_ZNKSt6vectorIN6casadi6SXElemESaIS1_EE2atEm.exit
  %22 = tail call noundef zeroext i1 @_ZNK6casadi6SXElem6is_nanEv(ptr noundef nonnull align 8 dereferenceable(8) %19)
  br i1 %22, label %.loopexit, label %23

23:                                               ; preds = %21
  %24 = tail call noundef zeroext i1 @_ZNK6casadi6SXElem6is_infEv(ptr noundef nonnull align 8 dereferenceable(8) %19)
  br i1 %24, label %.loopexit, label %25

25:                                               ; preds = %23
  %26 = tail call noundef zeroext i1 @_ZNK6casadi6SXElem12is_minus_infEv(ptr noundef nonnull align 8 dereferenceable(8) %19)
  br i1 %26, label %.loopexit, label %27

27:                                               ; preds = %_ZNKSt6vectorIN6casadi6SXElemESaIS1_EE2atEm.exit, %25
  %28 = add nuw nsw i64 %.01224, 1
  %29 = tail call noundef i64 @_ZNK6casadi8Sparsity3nnzEv(ptr noundef nonnull align 8 dereferenceable(8) %2)
  %30 = icmp slt i64 %28, %29
  br i1 %30, label %11, label %.preheader, !llvm.loop !739

31:                                               ; preds = %.lr.ph26, %41
  %.025 = phi i64 [ 0, %.lr.ph26 ], [ %42, %41 ]
  %32 = load ptr, ptr %10, align 8
  %33 = load ptr, ptr %9, align 8
  %34 = ptrtoint ptr %32 to i64
  %35 = ptrtoint ptr %33 to i64
  %36 = sub i64 %34, %35
  %37 = ashr exact i64 %36, 3
  %.not.i.i13 = icmp ugt i64 %37, %.025
  br i1 %.not.i.i13, label %_ZNKSt6vectorIN6casadi6SXElemESaIS1_EE2atEm.exit14, label %38

38:                                               ; preds = %31
  tail call void (ptr, ...) @_ZSt24__throw_out_of_range_fmtPKcz(ptr noundef nonnull @.str.470, i64 noundef %.025, i64 noundef %37) #27
  unreachable

_ZNKSt6vectorIN6casadi6SXElemESaIS1_EE2atEm.exit14: ; preds = %31
  %39 = getelementptr inbounds %"class.casadi::SXElem", ptr %33, i64 %.025
  %40 = tail call noundef zeroext i1 @_ZNK6casadi6SXElem10is_regularEv(ptr noundef nonnull align 8 dereferenceable(8) %39)
  br i1 %40, label %41, label %.loopexit

41:                                               ; preds = %_ZNKSt6vectorIN6casadi6SXElemESaIS1_EE2atEm.exit14
  %42 = add nuw nsw i64 %.025, 1
  %43 = tail call noundef i64 @_ZNK6casadi8Sparsity3nnzEv(ptr noundef nonnull align 8 dereferenceable(8) %2)
  %44 = icmp slt i64 %42, %43
  br i1 %44, label %31, label %.loopexit, !llvm.loop !740

.loopexit:                                        ; preds = %21, %23, %25, %_ZNKSt6vectorIN6casadi6SXElemESaIS1_EE2atEm.exit14, %41, %.preheader
  %.011 = phi i1 [ true, %.preheader ], [ %40, %41 ], [ %40, %_ZNKSt6vectorIN6casadi6SXElemESaIS1_EE2atEm.exit14 ], [ false, %25 ], [ false, %23 ], [ false, %21 ]
  ret i1 %.011
}